; Function Attrs: inlinehint mustprogress nounwind optsize uwtable
define internal noundef nonnull ptr @"_ZZN8nanobind6detail11func_createILb0ELb1EZL30nanobind_init_test_holders_extRNS_7module_EE4$_18bJNS_6handleEEJLm0EEJNS_5scopeENS_4nameEEEEP7_objectOT1_PFT2_DpT3_ESt16integer_sequenceImJXspT4_EEEDpRKT5_ENUlPvPS9_PhNS_9rv_policyEPNS0_12cleanup_listEE_8__invokeESN_SO_SP_SQ_SS_"(ptr readnone captures(none) %0, ptr noundef readonly captures(none) %1, ptr readonly captures(none) %2, i32 %3, ptr readnone captures(none) %4) #12 align 2 personality ptr @__gxx_personality_v0 {
"_ZZN8nanobind6detail11func_createILb0ELb1EZL30nanobind_init_test_holders_extRNS_7module_EE4$_18bJNS_6handleEEJLm0EEJNS_5scopeENS_4nameEEEEP7_objectOT1_PFT2_DpT3_ESt16integer_sequenceImJXspT4_EEEDpRKT5_ENKUlPvPS9_PhNS_9rv_policyEPNS0_12cleanup_listEE_clESN_SO_SP_SQ_SS_.exit":
  %5 = load ptr, ptr %1, align 8, !tbaa !115
  %6 = tail call i16 @_ZN8nanobind6detail13nb_inst_stateEP7_object(ptr noundef %5) #27
  %7 = and i16 %6, 256
  %.not = icmp eq i16 %7, 0
  %8 = select i1 %.not, ptr @_Py_FalseStruct, ptr @_Py_TrueStruct
  %9 = load i64, ptr %8, align 8, !tbaa !90
  %10 = add nsw i64 %9, 1
  store i64 %10, ptr %8, align 8, !tbaa !90
  ret ptr %8
}